(dp0
I1
I42
sI2
I42
sI3
I42
sI4
I43
sI5
I43
sI6
I43
sI7
I43
sI8
I43
sI9
I43
sI10
I43
sI11
I43
sI12
I43
sI13
I43
sI14
I43
sI15
I43
sI16
I43
sI17
I43
sI18
I43
sI19
I43
sI20
I43
sI21
I43
sI22
I43
sI23
I43
sI24
I43
sI25
I43
sI26
I43
sI27
I43
sI28
I43
sI29
I43
sI30
I43
sI31
I43
sI32
I43
sI33
I43
sI34
I43
sI35
I43
sI36
I43
sI37
I43
sI38
I43
sI39
I43
sI40
I43
sI41
I43
sI42
I43
sI43
I43
sI44
I43
sI45
I43
sI46
I43
sI47
I43
sI48
I43
sI49
I43
sI50
I43
sI51
I43
sI52
I43
sI53
I43
sI54
I44
sI55
I44
sI56
I44
sI57
I44
sI58
I44
sI59
I44
sI60
I44
sI61
I44
sI62
I44
sI63
I44
sI64
I44
sI65
I44
sI66
I44
sI67
I44
sI68
I44
sI69
I44
sI70
I44
sI71
I44
sI72
I44
sI73
I44
sI74
I44
sI75
I44
sI76
I44
sI77
I44
sI78
I44
sI79
I44
sI80
I44
sI81
I44
sI82
I44
sI83
I44
sI84
I44
sI85
I44
sI86
I44
sI87
I44
sI88
I44
sI89
I44
sI90
I44
sI91
I44
sI92
I44
sI93
I44
sI94
I44
sI95
I44
sI96
I44
sI97
I44
sI98
I44
sI99
I44
sI100
I44
sI101
I44
sI102
I44
sI103
I44
sI104
I44
sI105
I44
sI106
I44
sI107
I44
sI108
I44
sI109
I44
sI110
I44
sI111
I44
sI112
I44
sI113
I44
sI114
I44
sI115
I44
sI116
I44
sI117
I44
sI118
I44
sI119
I44
sI120
I44
sI121
I44
sI122
I44
sI123
I44
sI124
I44
sI125
I45
sI126
I45
sI127
I45
sI128
I45
sI129
I45
sI130
I45
sI131
I45
sI132
I45
sI133
I45
sI134
I45
sI135
I45
sI136
I45
sI137
I45
sI138
I45
sI139
I45
sI140
I45
sI141
I45
sI142
I45
sI143
I45
sI144
I45
sI145
I45
sI146
I45
sI147
I45
sI148
I45
sI149
I45
sI150
I45
sI151
I45
sI152
I45
sI153
I45
sI154
I45
sI155
I45
sI156
I45
sI157
I45
sI158
I46
sI159
I46
sI160
I46
sI161
I46
sI162
I46
sI163
I46
sI164
I46
sI165
I46
sI166
I46
sI167
I46
sI168
I46
sI169
I46
sI170
I46
sI171
I46
sI172
I46
sI173
I46
sI174
I46
sI175
I46
sI176
I46
sI177
I46
sI178
I46
sI179
I46
sI180
I46
sI181
I46
sI182
I46
sI183
I46
sI184
I46
sI185
I46
sI186
I46
sI187
I47
sI188
I47
sI189
I47
sI190
I47
sI191
I47
sI192
I47
sI193
I47
sI194
I47
sI195
I47
sI196
I47
sI197
I47
sI198
I47
sI199
I47
sI200
I47
sI201
I47
sI202
I47
sI203
I47
sI204
I47
sI205
I47
sI206
I47
sI207
I47
sI208
I47
sI209
I47
sI210
I47
sI211
I47
sI212
I47
sI213
I47
sI214
I47
sI215
I47
sI216
I48
sI217
I48
sI218
I48
sI219
I48
sI220
I48
sI221
I48
sI222
I48
sI223
I48
sI224
I48
sI225
I48
sI226
I48
sI227
I48
sI228
I48
sI229
I48
sI230
I48
sI231
I48
sI232
I48
sI233
I48
sI234
I48
sI235
I48
sI236
I48
sI237
I48
sI238
I48
sI239
I48
sI240
I48
sI241
I48
sI242
I48
sI243
I48
sI244
I48
sI245
I48
sI246
I49
sI247
I49
sI248
I49
sI249
I49
sI250
I49
sI251
I49
sI252
I49
sI253
I49
sI254
I49
sI255
I49
sI256
I49
sI257
I49
sI258
I49
sI259
I49
sI260
I49
sI261
I49
sI262
I49
sI263
I49
sI264
I49
sI265
I49
sI266
I49
sI267
I49
sI268
I49
sI269
I49
sI270
I49
sI271
I49
sI272
I49
sI273
I49
sI274
I49
sI275
I50
sI276
I50
sI277
I50
sI278
I50
sI279
I50
sI280
I50
sI281
I50
sI282
I50
sI283
I50
sI284
I50
sI285
I50
sI286
I50
sI287
I50
sI288
I50
sI289
I50
sI290
I50
sI291
I50
sI292
I50
sI293
I50
sI294
I50
sI295
I50
sI296
I50
sI297
I50
sI298
I50
sI299
I50
sI300
I50
sI301
I50
sI302
I50
sI303
I50
sI304
I51
sI305
I51
sI306
I51
sI307
I51
sI308
I51
sI309
I51
sI310
I51
sI311
I51
sI312
I51
sI313
I51
sI314
I51
sI315
I51
sI316
I51
sI317
I51
sI318
I51
sI319
I51
sI320
I51
sI321
I51
sI322
I51
sI323
I51
sI324
I51
sI325
I51
sI326
I51
sI327
I51
sI328
I51
sI329
I51
sI330
I51
sI331
I51
sI332
I51
sI333
I52
sI334
I52
sI335
I52
sI336
I52
sI337
I52
sI338
I52
sI339
I52
sI340
I52
sI341
I52
sI342
I52
sI343
I52
sI344
I52
sI345
I52
sI346
I52
sI347
I52
sI348
I52
sI349
I52
sI350
I52
sI351
I52
sI352
I52
sI353
I52
sI354
I52
sI355
I52
sI356
I52
sI357
I52
sI358
I52
sI359
I52
sI360
I52
sI361
I52
sI362
I53
sI363
I53
sI364
I53
sI365
I53
sI366
I53
sI367
I53
sI368
I53
sI369
I53
sI370
I53
sI371
I53
sI372
I53
sI373
I53
sI374
I53
sI375
I53
sI376
I53
sI377
I53
sI378
I53
sI379
I53
sI380
I53
sI381
I53
sI382
I53
sI383
I53
sI384
I53
sI385
I53
sI386
I53
sI387
I53
sI388
I53
sI389
I53
sI390
I53
sI391
I54
sI392
I54
sI393
I54
sI394
I54
sI395
I54
sI396
I54
sI397
I54
sI398
I54
sI399
I54
sI400
I54
sI401
I54
sI402
I54
sI403
I54
sI404
I54
sI405
I54
sI406
I54
sI407
I54
sI408
I54
sI409
I54
sI410
I54
sI411
I54
sI412
I54
sI413
I54
sI414
I54
sI415
I54
sI416
I54
sI417
I54
sI418
I54
sI419
I54
sI420
I54
sI421
I54
sI422
I55
sI423
I55
sI424
I55
sI425
I55
sI426
I55
sI427
I55
sI428
I55
sI429
I55
sI430
I55
sI431
I55
sI432
I55
sI433
I55
sI434
I55
sI435
I55
sI436
I55
sI437
I55
sI438
I55
sI439
I55
sI440
I55
sI441
I55
sI442
I55
sI443
I55
sI444
I55
sI445
I55
sI446
I55
sI447
I55
sI448
I55
sI449
I55
sI450
I55
sI451
I56
sI452
I56
sI453
I56
sI454
I56
sI455
I56
sI456
I56
sI457
I56
sI458
I56
sI459
I56
sI460
I56
sI461
I56
sI462
I56
sI463
I56
sI464
I56
sI465
I56
sI466
I56
sI467
I56
sI468
I56
sI469
I56
sI470
I56
sI471
I56
sI472
I56
sI473
I56
sI474
I56
sI475
I56
sI476
I56
sI477
I56
sI478
I56
sI479
I56
sI480
I57
sI481
I57
sI482
I57
sI483
I57
sI484
I57
sI485
I57
sI486
I57
sI487
I57
sI488
I57
sI489
I57
sI490
I57
sI491
I57
sI492
I57
sI493
I57
sI494
I57
sI495
I57
sI496
I57
sI497
I57
sI498
I57
sI499
I57
sI500
I57
sI501
I57
sI502
I57
sI503
I57
sI504
I57
sI505
I57
sI506
I57
sI507
I57
sI508
I57
sI509
I58
sI510
I58
sI511
I58
sI512
I58
sI513
I58
sI514
I58
sI515
I58
sI516
I58
sI517
I58
sI518
I58
sI519
I58
sI520
I58
sI521
I58
sI522
I58
sI523
I58
sI524
I58
sI525
I58
sI526
I58
sI527
I58
sI528
I58
sI529
I58
sI530
I58
sI531
I58
sI532
I58
sI533
I58
sI534
I58
sI535
I58
sI536
I58
sI537
I58
sI538
I59
sI539
I59
sI540
I59
sI541
I59
sI542
I59
sI543
I59
sI544
I59
sI545
I59
sI546
I59
sI547
I59
sI548
I59
sI549
I59
sI550
I59
sI551
I59
sI552
I59
sI553
I59
sI554
I59
sI555
I59
sI556
I59
sI557
I59
sI558
I59
sI559
I59
sI560
I59
sI561
I59
sI562
I59
sI563
I59
sI564
I59
sI565
I59
sI566
I59
sI567
I59
sI568
I59
sI569
I60
sI570
I60
sI571
I60
sI572
I60
sI573
I60
sI574
I60
sI575
I60
sI576
I60
sI577
I60
sI578
I60
sI579
I60
sI580
I60
sI581
I60
sI582
I60
sI583
I60
sI584
I60
sI585
I60
sI586
I60
sI587
I60
sI588
I60
sI589
I60
sI590
I60
sI591
I60
sI592
I60
sI593
I60
sI594
I60
sI595
I60
sI596
I60
sI597
I60
sI598
I60
sI599
I60
sI600
I60
sI601
I61
sI602
I61
sI603
I61
sI604
I61
sI605
I61
sI606
I61
sI607
I61
sI608
I61
sI609
I61
sI610
I61
sI611
I61
sI612
I61
sI613
I61
sI614
I61
sI615
I61
sI616
I61
sI617
I61
sI618
I61
sI619
I61
sI620
I61
sI621
I61
sI622
I61
sI623
I61
sI624
I61
sI625
I61
sI626
I61
sI627
I61
sI628
I61
sI629
I61
sI630
I62
sI631
I62
sI632
I62
sI633
I62
sI634
I62
sI635
I62
sI636
I62
sI637
I62
sI638
I62
sI639
I62
sI640
I62
sI641
I62
sI642
I62
sI643
I62
sI644
I62
sI645
I62
sI646
I62
sI647
I62
sI648
I62
sI649
I62
sI650
I62
sI651
I62
sI652
I62
sI653
I62
sI654
I62
sI655
I62
sI656
I62
sI657
I62
sI658
I62
sI659
I62
sI660
I63
sI661
I63
sI662
I63
sI663
I63
sI664
I63
sI665
I63
sI666
I63
sI667
I63
sI668
I63
sI669
I63
sI670
I63
sI671
I63
sI672
I63
sI673
I63
sI674
I63
sI675
I63
sI676
I63
sI677
I63
sI678
I63
sI679
I63
sI680
I63
sI681
I63
sI682
I63
sI683
I63
sI684
I63
sI685
I63
sI686
I63
sI687
I63
sI688
I63
sI689
I64
sI690
I64
sI691
I64
sI692
I64
sI693
I64
sI694
I64
sI695
I64
sI696
I64
sI697
I64
sI698
I64
sI699
I64
sI700
I64
sI701
I64
sI702
I64
sI703
I64
sI704
I64
sI705
I64
sI706
I64
sI707
I64
sI708
I64
sI709
I64
sI710
I64
sI711
I64
sI712
I64
sI713
I64
sI714
I64
sI715
I64
sI716
I64
sI717
I64
sI718
I65
sI719
I65
sI720
I65
sI721
I65
sI722
I65
sI723
I65
sI724
I65
sI725
I65
sI726
I65
sI727
I65
sI728
I65
sI729
I65
sI730
I65
sI731
I65
sI732
I65
sI733
I65
sI734
I65
sI735
I65
sI736
I65
sI737
I65
sI738
I65
sI739
I65
sI740
I65
sI741
I65
sI742
I65
sI743
I65
sI744
I65
sI745
I65
sI746
I65
sI747
I66
sI748
I66
sI749
I66
sI750
I66
sI751
I66
sI752
I66
sI753
I66
sI754
I66
sI755
I66
sI756
I66
sI757
I66
sI758
I66
sI759
I66
sI760
I66
sI761
I66
sI762
I66
sI763
I66
sI764
I66
sI765
I66
sI766
I66
sI767
I66
sI768
I66
sI769
I66
sI770
I66
sI771
I66
sI772
I66
sI773
I66
sI774
I66
sI775
I66
sI776
I67
sI777
I67
sI778
I67
sI779
I67
sI780
I67
sI781
I67
sI782
I67
sI783
I67
sI784
I67
sI785
I67
sI786
I67
sI787
I67
sI788
I67
sI789
I67
sI790
I67
sI791
I67
sI792
I67
sI793
I67
sI794
I67
sI795
I67
sI796
I67
sI797
I67
sI798
I67
sI799
I67
sI800
I67
sI801
I67
sI802
I67
sI803
I67
sI804
I67
sI805
I67
sI806
I67
sI807
I68
sI808
I68
sI809
I68
sI810
I68
sI811
I68
sI812
I68
sI813
I68
sI814
I68
sI815
I68
sI816
I68
sI817
I68
sI818
I68
sI819
I68
sI820
I68
sI821
I68
sI822
I68
sI823
I68
sI824
I68
sI825
I68
sI826
I68
sI827
I68
sI828
I68
sI829
I68
sI830
I68
sI831
I68
sI832
I68
sI833
I68
sI834
I68
sI835
I68
sI836
I69
sI837
I69
sI838
I69
sI839
I69
sI840
I69
sI841
I69
sI842
I69
sI843
I69
sI844
I69
sI845
I69
sI846
I69
sI847
I69
sI848
I69
sI849
I69
sI850
I69
sI851
I69
sI852
I69
sI853
I69
sI854
I69
sI855
I69
sI856
I69
sI857
I69
sI858
I69
sI859
I69
sI860
I69
sI861
I69
sI862
I69
sI863
I69
sI864
I69
sI865
I69
sI866
I70
sI867
I70
sI868
I70
sI869
I70
sI870
I70
sI871
I70
sI872
I70
sI873
I70
sI874
I70
sI875
I70
sI876
I70
sI877
I70
sI878
I70
sI879
I70
sI880
I70
sI881
I70
sI882
I70
sI883
I70
sI884
I70
sI885
I70
sI886
I70
sI887
I70
sI888
I70
sI889
I70
sI890
I70
sI891
I70
sI892
I70
sI893
I70
sI894
I70
sI895
I71
sI896
I71
sI897
I71
sI898
I71
sI899
I71
sI900
I71
sI901
I71
sI902
I71
sI903
I71
sI904
I71
sI905
I71
sI906
I71
sI907
I71
sI908
I71
sI909
I71
sI910
I71
sI911
I71
sI912
I71
sI913
I71
sI914
I71
sI915
I71
sI916
I71
sI917
I71
sI918
I71
sI919
I71
sI920
I71
sI921
I71
sI922
I71
sI923
I71
sI924
I72
sI925
I72
sI926
I72
sI927
I72
sI928
I72
sI929
I72
sI930
I72
sI931
I72
sI932
I72
sI933
I72
sI934
I72
sI935
I72
sI936
I72
sI937
I72
sI938
I72
sI939
I72
sI940
I72
sI941
I72
sI942
I72
sI943
I72
sI944
I72
sI945
I72
sI946
I72
sI947
I72
sI948
I72
sI949
I72
sI950
I72
sI951
I72
sI952
I72
sI953
I73
sI954
I73
sI955
I73
sI956
I73
sI957
I73
sI958
I73
sI959
I73
sI960
I73
sI961
I73
sI962
I73
sI963
I73
sI964
I73
sI965
I73
sI966
I73
sI967
I73
sI968
I73
sI969
I73
sI970
I73
sI971
I73
sI972
I73
sI973
I73
sI974
I73
sI975
I73
sI976
I73
sI977
I73
sI978
I73
sI979
I73
sI980
I73
sI981
I73
sI982
I73
sI983
I73
sI984
I74
sI985
I74
sI986
I74
sI987
I74
sI988
I74
sI989
I74
sI990
I74
sI991
I74
sI992
I74
sI993
I74
sI994
I74
sI995
I74
sI996
I74
sI997
I74
sI998
I74
sI999
I74
sI1000
I74
sI1001
I74
sI1002
I74
sI1003
I74
sI1004
I74
sI1005
I74
sI1006
I74
sI1007
I74
sI1008
I74
sI1009
I74
sI1010
I74
sI1011
I74
sI1012
I74
sI1013
I74
sI1014
I75
sI1015
I75
sI1016
I75
sI1017
I75
sI1018
I75
sI1019
I75
sI1020
I75
sI1021
I75
sI1022
I75
sI1023
I75
sI1024
I75
sI1025
I75
sI1026
I75
sI1027
I75
sI1028
I75
sI1029
I75
sI1030
I75
sI1031
I75
sI1032
I75
sI1033
I75
sI1034
I75
sI1035
I75
sI1036
I75
sI1037
I75
sI1038
I75
sI1039
I75
sI1040
I75
sI1041
I75
sI1042
I75
sI1043
I76
sI1044
I76
sI1045
I76
sI1046
I76
sI1047
I76
sI1048
I76
sI1049
I76
sI1050
I76
sI1051
I76
sI1052
I76
sI1053
I76
sI1054
I76
sI1055
I76
sI1056
I76
sI1057
I76
sI1058
I76
sI1059
I76
sI1060
I76
sI1061
I76
sI1062
I76
sI1063
I76
sI1064
I76
sI1065
I76
sI1066
I76
sI1067
I76
sI1068
I76
sI1069
I76
sI1070
I76
sI1071
I76
sI1072
I77
sI1073
I77
sI1074
I77
sI1075
I77
sI1076
I77
sI1077
I77
sI1078
I77
sI1079
I77
sI1080
I77
sI1081
I77
sI1082
I77
sI1083
I77
sI1084
I77
sI1085
I77
sI1086
I77
sI1087
I77
sI1088
I77
sI1089
I77
sI1090
I77
sI1091
I77
sI1092
I77
sI1093
I77
sI1094
I77
sI1095
I77
sI1096
I77
sI1097
I77
sI1098
I77
sI1099
I77
sI1100
I77
sI1101
I78
sI1102
I78
sI1103
I78
sI1104
I78
sI1105
I78
sI1106
I78
sI1107
I78
sI1108
I78
sI1109
I78
sI1110
I78
sI1111
I78
sI1112
I78
sI1113
I78
sI1114
I78
sI1115
I78
sI1116
I78
sI1117
I78
sI1118
I78
sI1119
I78
sI1120
I78
sI1121
I78
sI1122
I78
sI1123
I78
sI1124
I78
sI1125
I78
sI1126
I78
sI1127
I78
sI1128
I78
sI1129
I78
sI1130
I78
sI1131
I79
sI1132
I79
sI1133
I79
sI1134
I79
sI1135
I79
sI1136
I79
sI1137
I79
sI1138
I79
sI1139
I79
sI1140
I79
sI1141
I79
sI1142
I79
sI1143
I79
sI1144
I79
sI1145
I79
sI1146
I79
sI1147
I79
sI1148
I79
sI1149
I79
sI1150
I79
sI1151
I79
sI1152
I79
sI1153
I79
sI1154
I79
sI1155
I79
sI1156
I79
sI1157
I79
sI1158
I79
sI1159
I79
sI1160
I79
sI1161
I80
sI1162
I80
sI1163
I80
sI1164
I80
sI1165
I80
sI1166
I80
sI1167
I80
sI1168
I80
sI1169
I80
sI1170
I80
sI1171
I80
sI1172
I80
sI1173
I80
sI1174
I80
sI1175
I80
sI1176
I80
sI1177
I80
sI1178
I80
sI1179
I80
sI1180
I80
sI1181
I80
sI1182
I80
sI1183
I80
sI1184
I80
sI1185
I80
sI1186
I80
sI1187
I80
sI1188
I80
sI1189
I80
sI1190
I80
sI1191
I81
sI1192
I81
sI1193
I81
sI1194
I81
sI1195
I81
sI1196
I81
sI1197
I81
sI1198
I81
sI1199
I81
sI1200
I81
sI1201
I81
sI1202
I81
sI1203
I81
sI1204
I81
sI1205
I81
sI1206
I81
sI1207
I81
sI1208
I81
sI1209
I81
sI1210
I81
sI1211
I81
sI1212
I81
sI1213
I81
sI1214
I81
sI1215
I81
sI1216
I81
sI1217
I81
sI1218
I81
sI1219
I81
sI1220
I82
sI1221
I82
sI1222
I82
sI1223
I82
sI1224
I82
sI1225
I82
sI1226
I82
sI1227
I82
sI1228
I82
sI1229
I82
sI1230
I82
sI1231
I82
sI1232
I82
sI1233
I82
sI1234
I82
sI1235
I82
sI1236
I82
sI1237
I82
sI1238
I82
sI1239
I82
sI1240
I82
sI1241
I82
sI1242
I82
sI1243
I82
sI1244
I82
sI1245
I82
sI1246
I82
sI1247
I82
sI1248
I82
sI1249
I83
sI1250
I83
sI1251
I83
sI1252
I83
sI1253
I83
sI1254
I83
sI1255
I83
sI1256
I83
sI1257
I83
sI1258
I83
sI1259
I83
sI1260
I83
sI1261
I83
sI1262
I83
sI1263
I83
sI1264
I83
sI1265
I83
sI1266
I83
sI1267
I83
sI1268
I83
sI1269
I83
sI1270
I83
sI1271
I83
sI1272
I83
sI1273
I83
sI1274
I83
sI1275
I83
sI1276
I83
sI1277
I83
sI1278
I84
sI1279
I84
sI1280
I84
sI1281
I84
sI1282
I84
sI1283
I84
sI1284
I84
sI1285
I84
sI1286
I84
sI1287
I84
sI1288
I84
sI1289
I84
sI1290
I84
sI1291
I84
sI1292
I84
sI1293
I84
sI1294
I84
sI1295
I84
sI1296
I84
sI1297
I84
sI1298
I84
sI1299
I84
sI1300
I84
sI1301
I84
sI1302
I84
sI1303
I84
sI1304
I84
sI1305
I84
sI1306
I84
sI1307
I85
sI1308
I85
sI1309
I85
sI1310
I85
sI1311
I85
sI1312
I85
sI1313
I85
sI1314
I85
sI1315
I85
sI1316
I85
sI1317
I85
sI1318
I85
sI1319
I85
sI1320
I85
sI1321
I85
sI1322
I85
sI1323
I85
sI1324
I85
sI1325
I85
sI1326
I85
sI1327
I85
sI1328
I85
sI1329
I85
sI1330
I85
sI1331
I85
sI1332
I85
sI1333
I85
sI1334
I85
sI1335
I85
sI1336
I85
sI1337
I86
sI1338
I86
sI1339
I86
sI1340
I86
sI1341
I86
sI1342
I86
sI1343
I86
sI1344
I86
sI1345
I86
sI1346
I86
sI1347
I86
sI1348
I86
sI1349
I86
sI1350
I86
sI1351
I86
sI1352
I86
sI1353
I86
sI1354
I86
sI1355
I86
sI1356
I86
sI1357
I86
sI1358
I86
sI1359
I86
sI1360
I86
sI1361
I86
sI1362
I86
sI1363
I86
sI1364
I86
sI1365
I86
sI1366
I87
sI1367
I87
sI1368
I87
sI1369
I87
sI1370
I87
sI1371
I87
sI1372
I87
sI1373
I87
sI1374
I87
sI1375
I87
sI1376
I87
sI1377
I87
sI1378
I87
sI1379
I87
sI1380
I87
sI1381
I87
sI1382
I87
sI1383
I87
sI1384
I87
sI1385
I87
sI1386
I87
sI1387
I87
sI1388
I87
sI1389
I87
sI1390
I87
sI1391
I87
sI1392
I87
sI1393
I87
sI1394
I87
sI1395
I87
sI1396
I87
sI1397
I88
sI1398
I88
sI1399
I88
sI1400
I88
sI1401
I88
sI1402
I88
sI1403
I88
sI1404
I88
sI1405
I88
sI1406
I88
sI1407
I88
sI1408
I88
sI1409
I88
sI1410
I88
sI1411
I88
sI1412
I88
sI1413
I88
sI1414
I88
sI1415
I88
sI1416
I88
sI1417
I88
sI1418
I88
sI1419
I88
sI1420
I88
sI1421
I88
sI1422
I88
sI1423
I88
sI1424
I88
sI1425
I88
sI1426
I89
sI1427
I89
sI1428
I89
sI1429
I89
sI1430
I89
sI1431
I89
sI1432
I89
sI1433
I89
sI1434
I89
sI1435
I89
sI1436
I89
sI1437
I89
sI1438
I89
sI1439
I89
sI1440
I89
sI1441
I89
sI1442
I89
sI1443
I89
sI1444
I89
sI1445
I89
sI1446
I89
sI1447
I89
sI1448
I89
sI1449
I89
sI1450
I89
sI1451
I89
sI1452
I89
sI1453
I89
sI1454
I89
sI1455
I90
sI1456
I90
sI1457
I90
sI1458
I90
sI1459
I90
sI1460
I90
sI1461
I90
sI1462
I90
sI1463
I90
sI1464
I90
sI1465
I90
sI1466
I90
sI1467
I90
sI1468
I90
sI1469
I90
sI1470
I90
sI1471
I90
sI1472
I90
sI1473
I90
sI1474
I90
sI1475
I90
sI1476
I90
sI1477
I90
sI1478
I90
sI1479
I90
sI1480
I90
sI1481
I90
sI1482
I90
sI1483
I90
sI1484
I91
sI1485
I91
sI1486
I91
sI1487
I91
sI1488
I91
sI1489
I91
sI1490
I91
sI1491
I91
sI1492
I91
sI1493
I91
sI1494
I91
sI1495
I91
sI1496
I91
sI1497
I91
sI1498
I91
sI1499
I91
sI1500
I91
sI1501
I91
sI1502
I91
sI1503
I91
sI1504
I91
sI1505
I91
sI1506
I91
sI1507
I91
sI1508
I91
sI1509
I91
sI1510
I91
sI1511
I91
sI1512
I91
sI1513
I92
sI1514
I92
sI1515
I92
sI1516
I92
sI1517
I92
sI1518
I92
sI1519
I92
sI1520
I92
sI1521
I92
sI1522
I92
sI1523
I92
sI1524
I92
sI1525
I92
sI1526
I92
sI1527
I92
sI1528
I92
sI1529
I92
sI1530
I92
sI1531
I92
sI1532
I92
sI1533
I92
sI1534
I92
sI1535
I92
sI1536
I92
sI1537
I92
sI1538
I92
sI1539
I92
sI1540
I92
sI1541
I92
sI1542
I93
sI1543
I93
sI1544
I93
sI1545
I93
sI1546
I93
sI1547
I93
sI1548
I93
sI1549
I93
sI1550
I93
sI1551
I93
sI1552
I93
sI1553
I93
sI1554
I93
sI1555
I93
sI1556
I93
sI1557
I93
sI1558
I93
sI1559
I93
sI1560
I93
sI1561
I93
sI1562
I93
sI1563
I93
sI1564
I93
sI1565
I93
sI1566
I93
sI1567
I93
sI1568
I93
sI1569
I93
sI1570
I93
sI1571
I94
sI1572
I94
sI1573
I94
sI1574
I94
sI1575
I94
sI1576
I94
sI1577
I94
sI1578
I94
sI1579
I94
sI1580
I94
sI1581
I94
sI1582
I94
sI1583
I94
sI1584
I94
sI1585
I94
sI1586
I94
sI1587
I94
sI1588
I94
sI1589
I94
sI1590
I94
sI1591
I94
sI1592
I94
sI1593
I94
sI1594
I94
sI1595
I94
sI1596
I94
sI1597
I94
sI1598
I94
sI1599
I94
sI1600
I94
sI1601
I94
sI1602
I94
sI1603
I95
sI1604
I95
sI1605
I95
sI1606
I95
sI1607
I95
sI1608
I95
sI1609
I95
sI1610
I95
sI1611
I95
sI1612
I95
sI1613
I95
sI1614
I95
sI1615
I95
sI1616
I95
sI1617
I95
sI1618
I95
sI1619
I95
sI1620
I95
sI1621
I95
sI1622
I95
sI1623
I95
sI1624
I95
sI1625
I95
sI1626
I95
sI1627
I95
sI1628
I95
sI1629
I95
sI1630
I95
sI1631
I95
sI1632
I95
sI1633
I96
sI1634
I96
sI1635
I96
sI1636
I96
sI1637
I96
sI1638
I96
sI1639
I96
sI1640
I96
sI1641
I96
sI1642
I96
sI1643
I96
sI1644
I96
sI1645
I96
sI1646
I96
sI1647
I96
sI1648
I96
sI1649
I96
sI1650
I96
sI1651
I96
sI1652
I96
sI1653
I96
sI1654
I96
sI1655
I96
sI1656
I96
sI1657
I96
sI1658
I96
sI1659
I96
sI1660
I96
sI1661
I96
sI1662
I97
sI1663
I97
sI1664
I97
sI1665
I97
sI1666
I97
sI1667
I97
sI1668
I97
sI1669
I97
sI1670
I97
sI1671
I97
sI1672
I97
sI1673
I97
sI1674
I97
sI1675
I97
sI1676
I97
sI1677
I97
sI1678
I97
sI1679
I97
sI1680
I97
sI1681
I97
sI1682
I97
sI1683
I97
sI1684
I97
sI1685
I97
sI1686
I97
sI1687
I97
sI1688
I97
sI1689
I97
sI1690
I97
sI1691
I97
sI1692
I98
sI1693
I98
sI1694
I98
sI1695
I98
sI1696
I98
sI1697
I98
sI1698
I98
sI1699
I98
sI1700
I98
sI1701
I98
sI1702
I98
sI1703
I98
sI1704
I98
sI1705
I98
sI1706
I98
sI1707
I98
sI1708
I98
sI1709
I98
sI1710
I98
sI1711
I98
sI1712
I98
sI1713
I98
sI1714
I98
sI1715
I98
sI1716
I98
sI1717
I98
sI1718
I98
sI1719
I98
sI1720
I98
sI1721
I99
sI1722
I99
sI1723
I99
sI1724
I99
sI1725
I99
sI1726
I99
sI1727
I99
sI1728
I99
sI1729
I99
sI1730
I99
sI1731
I99
sI1732
I99
sI1733
I99
sI1734
I99
sI1735
I99
sI1736
I99
sI1737
I99
sI1738
I99
sI1739
I99
sI1740
I99
sI1741
I99
sI1742
I99
sI1743
I99
sI1744
I99
sI1745
I99
sI1746
I99
sI1747
I99
sI1748
I99
sI1749
I99
sI1750
I99
sI1751
I99
sI1752
I99
sI1753
I99
sI1754
I99
sI1755
I99
sI1756
I99
sI1757
I99
sI1758
I99
sI1759
I99
s.